target datalayout = "e-m:e-p270:32:32-p271:32:32-p272:64:64-i64:64-i128:128-f80:128-n8:16:32:64-S128"
target triple = "x86_64-pc-linux-gnu"

%struct._VAConfigAttrib = type { i32, i32 }
%struct.AVCodecContext = type { ptr, i32, i32, ptr, i32, i32, ptr, ptr, ptr, i64, i32, i32, ptr, i32, %struct.AVRational, %struct.AVRational, %struct.AVRational, i32, i32, i32, i32, i32, %struct.AVRational, i32, i32, i32, i32, i32, i32, i32, i32, i32, i32, i32, ptr, ptr, i32, float, float, float, float, float, float, float, float, float, i32, i32, i32, i32, i32, i32, i32, i32, i32, i32, i32, i32, ptr, ptr, ptr, i32, i32, i32, i32, i32, i32, i32, i32, i32, i32, %struct.AVChannelLayout, i32, i32, i32, i32, i32, i32, i32, i32, ptr, i32, i32, i32, float, float, i32, i32, i32, i32, i32, ptr, i64, i64, float, float, i32, i32, ptr, ptr, i32, i32, i32, i32, i32, ptr, ptr, ptr, ptr, i32, i32, [8 x i64], i32, i32, i32, i32, i32, i32, i32, ptr, ptr, i32, i32, i32, i32, i32, i32, i32, i32, i32, i32, ptr, ptr, i32, i32, ptr, ptr, ptr, ptr, i32, i32, i64, i32, i32, i64, ptr, i64, ptr, i32, ptr, i32 }
%struct.AVRational = type { i32, i32 }
%struct.AVChannelLayout = type { i32, i32, %union.anon, ptr }
%union.anon = type { i64 }
%struct.VAAPIEncodeContext = type { %struct.FFHWBaseEncodeContext, ptr, i32, i32, i32, i32, i32, i32, ptr, ptr, i32, i32, i32, i32, i32, i32, [4 x %struct._VAConfigAttrib], i32, i32, i32, ptr, ptr, [4 x i32], [4 x ptr], [4 x i64], i32, %struct._VAEncMiscParameterRateControl, %struct._VAEncMiscParameterHRD, %struct._VAEncMiscParameterFrameRate, %struct._VAEncMiscParameterBufferMaxFrameSize, %struct._VAEncMiscParameterBufferQualityLevel, ptr, ptr, i32, i32, i32, i32, i32, i32, [20 x i32], [22 x i32], [21 x i32], [23 x i32], i32, i32, ptr, i32, i32 }
%struct.FFHWBaseEncodeContext = type { ptr, ptr, ptr, i32, i32, i32, i32, i32, i32, ptr, ptr, ptr, ptr, ptr, ptr, ptr, ptr, [2 x ptr], i32, i64, i64, i64, i64, i64, i64, i64, [112 x i64], i32, i32, i32, i32, i32, i32, i32, i32, i32, i32, i32, i32, i32, i32, i32, i32, ptr, i32, ptr, i32, ptr }
%struct._VAEncMiscParameterRateControl = type { i32, i32, i32, i32, i32, i32, %union.anon.0, i32, i32, i32, i32, [4 x i32] }
%union.anon.0 = type { %struct.anon }
%struct.anon = type { i32 }
%struct._VAEncMiscParameterHRD = type { i32, i32, [4 x i32] }
%struct._VAEncMiscParameterFrameRate = type { i32, %union.anon.1, [4 x i32] }
%union.anon.1 = type { %struct.anon.2 }
%struct.anon.2 = type { i32 }
%struct._VAEncMiscParameterBufferMaxFrameSize = type { i32, i32, [4 x i32] }
%struct._VAEncMiscParameterBufferQualityLevel = type { i32, [4 x i32] }
%struct.AVVAAPIDeviceContext = type { ptr, i32 }
%struct.FFHWBaseEncodePicture = type { ptr, ptr, ptr, i64, i64, i64, i64, i32, ptr, ptr, i32, i32, i32, i32, ptr, ptr, i32, i32, [16 x ptr], [2 x i32], [2 x [2 x ptr]], ptr, [2 x i32], [2 x i32] }
%struct.VAAPIEncodePicture = type { ptr, i32, i32, i32, ptr, ptr, i32, ptr, i32, ptr, i32, [1024 x i8], i64 }

@.str.10 = private unnamed_addr constant [30 x i8] c"Assertion %s failed at %s:%d\0A\00", align 1
@.str.12 = private unnamed_addr constant [26 x i8] c"libavcodec/vaapi_encode.c\00", align 1
@.str.52 = private unnamed_addr constant [24 x i8] c"base_pic->encode_issued\00", align 1
@.str.53 = private unnamed_addr constant [42 x i8] c"Sync to pic %ld/%ld (input surface %#x).\0A\00", align 1
@.str.54 = private unnamed_addr constant [54 x i8] c"Failed to sync to output buffer completion: %d (%s).\0A\00", align 1
@.str.55 = private unnamed_addr constant [48 x i8] c"Failed to sync to picture completion: %d (%s).\0A\00", align 1

; Function Attrs: nounwind uwtable
define internal i32 @vaapi_encode_wait(ptr noundef %0, ptr noundef %1) #0 {
  %3 = alloca i32, align 4
  %4 = alloca ptr, align 8
  %5 = alloca ptr, align 8
  %6 = alloca ptr, align 8
  %7 = alloca ptr, align 8
  %8 = alloca ptr, align 8
  %9 = alloca i32, align 4
  %10 = alloca i32, align 4
  store ptr %0, ptr %4, align 8, !tbaa !4
  store ptr %1, ptr %5, align 8, !tbaa !229
  call void @llvm.lifetime.start.p0(i64 8, ptr %6) #10
  %11 = load ptr, ptr %4, align 8, !tbaa !4
  %12 = getelementptr inbounds nuw %struct.AVCodecContext, ptr %11, i32 0, i32 6
  %13 = load ptr, ptr %12, align 8, !tbaa !11
  store ptr %13, ptr %6, align 8, !tbaa !31
  call void @llvm.lifetime.start.p0(i64 8, ptr %7) #10
  %14 = load ptr, ptr %4, align 8, !tbaa !4
  %15 = getelementptr inbounds nuw %struct.AVCodecContext, ptr %14, i32 0, i32 6
  %16 = load ptr, ptr %15, align 8, !tbaa !11
  store ptr %16, ptr %7, align 8, !tbaa !33
  call void @llvm.lifetime.start.p0(i64 8, ptr %8) #10
  %17 = load ptr, ptr %5, align 8, !tbaa !229
  %18 = getelementptr inbounds nuw %struct.FFHWBaseEncodePicture, ptr %17, i32 0, i32 0
  %19 = load ptr, ptr %18, align 8, !tbaa !233
  store ptr %19, ptr %8, align 8, !tbaa !234
  call void @llvm.lifetime.start.p0(i64 4, ptr %9) #10
  br label %20

20:                                               ; preds = %2
  %21 = load ptr, ptr %5, align 8, !tbaa !229
  %22 = getelementptr inbounds nuw %struct.FFHWBaseEncodePicture, ptr %21, i32 0, i32 12
  %23 = load i32, ptr %22, align 8, !tbaa !236
  %24 = icmp ne i32 %23, 0
  br i1 %24, label %26, label %25

25:                                               ; preds = %20
  call void (ptr, i32, ptr, ...) @av_log(ptr noundef null, i32 noundef 0, ptr noundef @.str.10, ptr noundef @.str.52, ptr noundef @.str.12, i32 noundef 147)
  call void @abort() #12
  unreachable

26:                                               ; preds = %20
  br label %27

27:                                               ; preds = %26
  br label %28

28:                                               ; preds = %27
  %29 = load ptr, ptr %5, align 8, !tbaa !229
  %30 = getelementptr inbounds nuw %struct.FFHWBaseEncodePicture, ptr %29, i32 0, i32 13
  %31 = load i32, ptr %30, align 4, !tbaa !343
  %32 = icmp ne i32 %31, 0
  br i1 %32, label %33, label %34

33:                                               ; preds = %28
  store i32 0, ptr %3, align 4
  store i32 1, ptr %10, align 4
  br label %90

34:                                               ; preds = %28
  %35 = load ptr, ptr %4, align 8, !tbaa !4
  %36 = load ptr, ptr %5, align 8, !tbaa !229
  %37 = getelementptr inbounds nuw %struct.FFHWBaseEncodePicture, ptr %36, i32 0, i32 3
  %38 = load i64, ptr %37, align 8, !tbaa !252
  %39 = load ptr, ptr %5, align 8, !tbaa !229
  %40 = getelementptr inbounds nuw %struct.FFHWBaseEncodePicture, ptr %39, i32 0, i32 4
  %41 = load i64, ptr %40, align 8, !tbaa !253
  %42 = load ptr, ptr %8, align 8, !tbaa !234
  %43 = getelementptr inbounds nuw %struct.VAAPIEncodePicture, ptr %42, i32 0, i32 1
  %44 = load i32, ptr %43, align 8, !tbaa !250
  call void (ptr, i32, ptr, ...) @av_log(ptr noundef %35, i32 noundef 48, ptr noundef @.str.53, i64 noundef %38, i64 noundef %41, i32 noundef %44)
  %45 = load ptr, ptr %6, align 8, !tbaa !31
  %46 = getelementptr inbounds nuw %struct.FFHWBaseEncodeContext, ptr %45, i32 0, i32 44
  %47 = load i32, ptr %46, align 8, !tbaa !105
  %48 = icmp ne i32 %47, 0
  br i1 %48, label %49, label %67

49:                                               ; preds = %34
  %50 = load ptr, ptr %7, align 8, !tbaa !33
  %51 = getelementptr inbounds nuw %struct.VAAPIEncodeContext, ptr %50, i32 0, i32 20
  %52 = load ptr, ptr %51, align 8, !tbaa !62
  %53 = getelementptr inbounds nuw %struct.AVVAAPIDeviceContext, ptr %52, i32 0, i32 0
  %54 = load ptr, ptr %53, align 8, !tbaa !75
  %55 = load ptr, ptr %8, align 8, !tbaa !234
  %56 = getelementptr inbounds nuw %struct.VAAPIEncodePicture, ptr %55, i32 0, i32 6
  %57 = load i32, ptr %56, align 8, !tbaa !243
  %58 = call i32 @vaSyncBuffer(ptr noundef %54, i32 noundef %57, i64 noundef -1)
  store i32 %58, ptr %9, align 4, !tbaa !37
  %59 = load i32, ptr %9, align 4, !tbaa !37
  %60 = icmp ne i32 %59, 0
  br i1 %60, label %61, label %66

61:                                               ; preds = %49
  %62 = load ptr, ptr %4, align 8, !tbaa !4
  %63 = load i32, ptr %9, align 4, !tbaa !37
  %64 = load i32, ptr %9, align 4, !tbaa !37
  %65 = call ptr @vaErrorStr(i32 noundef %64)
  call void (ptr, i32, ptr, ...) @av_log(ptr noundef %62, i32 noundef 16, ptr noundef @.str.54, i32 noundef %63, ptr noundef %65)
  store i32 -5, ptr %3, align 4
  store i32 1, ptr %10, align 4
  br label %90

66:                                               ; preds = %49
  br label %85

67:                                               ; preds = %34
  %68 = load ptr, ptr %7, align 8, !tbaa !33
  %69 = getelementptr inbounds nuw %struct.VAAPIEncodeContext, ptr %68, i32 0, i32 20
  %70 = load ptr, ptr %69, align 8, !tbaa !62
  %71 = getelementptr inbounds nuw %struct.AVVAAPIDeviceContext, ptr %70, i32 0, i32 0
  %72 = load ptr, ptr %71, align 8, !tbaa !75
  %73 = load ptr, ptr %8, align 8, !tbaa !234
  %74 = getelementptr inbounds nuw %struct.VAAPIEncodePicture, ptr %73, i32 0, i32 1
  %75 = load i32, ptr %74, align 8, !tbaa !250
  %76 = call i32 @vaSyncSurface(ptr noundef %72, i32 noundef %75)
  store i32 %76, ptr %9, align 4, !tbaa !37
  %77 = load i32, ptr %9, align 4, !tbaa !37
  %78 = icmp ne i32 %77, 0
  br i1 %78, label %79, label %84

79:                                               ; preds = %67
  %80 = load ptr, ptr %4, align 8, !tbaa !4
  %81 = load i32, ptr %9, align 4, !tbaa !37
  %82 = load i32, ptr %9, align 4, !tbaa !37
  %83 = call ptr @vaErrorStr(i32 noundef %82)
  call void (ptr, i32, ptr, ...) @av_log(ptr noundef %80, i32 noundef 16, ptr noundef @.str.55, i32 noundef %81, ptr noundef %83)
  store i32 -5, ptr %3, align 4
  store i32 1, ptr %10, align 4
  br label %90

84:                                               ; preds = %67
  br label %85

85:                                               ; preds = %84, %66
  %86 = load ptr, ptr %5, align 8, !tbaa !229
  %87 = getelementptr inbounds nuw %struct.FFHWBaseEncodePicture, ptr %86, i32 0, i32 14
  call void @av_frame_free(ptr noundef %87)
  %88 = load ptr, ptr %5, align 8, !tbaa !229
  %89 = getelementptr inbounds nuw %struct.FFHWBaseEncodePicture, ptr %88, i32 0, i32 13
  store i32 1, ptr %89, align 4, !tbaa !343
  store i32 0, ptr %3, align 4
  store i32 1, ptr %10, align 4
  br label %90

90:                                               ; preds = %85, %79, %61, %33
  call void @llvm.lifetime.end.p0(i64 4, ptr %9) #10
  call void @llvm.lifetime.end.p0(i64 8, ptr %8) #10
  call void @llvm.lifetime.end.p0(i64 8, ptr %7) #10
  call void @llvm.lifetime.end.p0(i64 8, ptr %6) #10
  %91 = load i32, ptr %3, align 4
  ret i32 %91
}