; Function Attrs: nounwind uwtable
define internal fastcc range(i32 -5, 1) i32 @vaapi_encode_wait(ptr noundef %0, ptr noundef %1) unnamed_addr #0 {
  %3 = getelementptr inbounds nuw i8, ptr %0, i64 32
  %4 = load ptr, ptr %3, align 8, !tbaa !4
  %5 = load ptr, ptr %1, align 8, !tbaa !194
  %6 = getelementptr inbounds nuw i8, ptr %1, i64 88
  %7 = load i32, ptr %6, align 8, !tbaa !195
  %.not = icmp eq i32 %7, 0
  br i1 %.not, label %8, label %9

8:                                                ; preds = %2
  tail call void (ptr, i32, ptr, ...) @av_log(ptr noundef null, i32 noundef 0, ptr noundef nonnull @.str.10, ptr noundef nonnull @.str.52, ptr noundef nonnull @.str.12, i32 noundef 147) #9
  tail call void @abort() #11
  unreachable

9:                                                ; preds = %2
  %10 = getelementptr inbounds nuw i8, ptr %1, i64 92
  %11 = load i32, ptr %10, align 4, !tbaa !282
  %.not26 = icmp eq i32 %11, 0
  br i1 %.not26, label %12, label %37

12:                                               ; preds = %9
  %13 = getelementptr inbounds nuw i8, ptr %1, i64 24
  %14 = load i64, ptr %13, align 8, !tbaa !200
  %15 = getelementptr inbounds nuw i8, ptr %1, i64 32
  %16 = load i64, ptr %15, align 8, !tbaa !201
  %17 = getelementptr inbounds nuw i8, ptr %5, i64 8
  %18 = load i32, ptr %17, align 8, !tbaa !210
  tail call void (ptr, i32, ptr, ...) @av_log(ptr noundef nonnull %0, i32 noundef 48, ptr noundef nonnull @.str.53, i64 noundef %14, i64 noundef %16, i32 noundef %18) #9
  %19 = getelementptr inbounds nuw i8, ptr %4, i64 1160
  %20 = load i32, ptr %19, align 8, !tbaa !95
  %.not27 = icmp eq i32 %20, 0
  %21 = getelementptr inbounds nuw i8, ptr %4, i64 1312
  %22 = load ptr, ptr %21, align 8, !tbaa !52
  %23 = load ptr, ptr %22, align 8, !tbaa !65
  br i1 %.not27, label %30, label %24

24:                                               ; preds = %12
  %25 = getelementptr inbounds nuw i8, ptr %5, i64 40
  %26 = load i32, ptr %25, align 8, !tbaa !202
  %27 = tail call i32 @vaSyncBuffer(ptr noundef %23, i32 noundef %26, i64 noundef -1) #9
  %.not29 = icmp eq i32 %27, 0
  br i1 %.not29, label %35, label %28

28:                                               ; preds = %24
  %29 = tail call ptr @vaErrorStr(i32 noundef %27) #9
  tail call void (ptr, i32, ptr, ...) @av_log(ptr noundef nonnull %0, i32 noundef 16, ptr noundef nonnull @.str.54, i32 noundef %27, ptr noundef %29) #9
  br label %37

30:                                               ; preds = %12
  %31 = load i32, ptr %17, align 8, !tbaa !210
  %32 = tail call i32 @vaSyncSurface(ptr noundef %23, i32 noundef %31) #9
  %.not28 = icmp eq i32 %32, 0
  br i1 %.not28, label %35, label %33

33:                                               ; preds = %30
  %34 = tail call ptr @vaErrorStr(i32 noundef %32) #9
  tail call void (ptr, i32, ptr, ...) @av_log(ptr noundef nonnull %0, i32 noundef 16, ptr noundef nonnull @.str.55, i32 noundef %32, ptr noundef %34) #9
  br label %37

35:                                               ; preds = %30, %24
  %36 = getelementptr inbounds nuw i8, ptr %1, i64 96
  tail call void @av_frame_free(ptr noundef nonnull %36) #9
  store i32 1, ptr %10, align 4, !tbaa !282
  br label %37

37:                                               ; preds = %9, %35, %33, %28
  %.0 = phi i32 [ -5, %28 ], [ 0, %35 ], [ -5, %33 ], [ 0, %9 ]
  ret i32 %.0
}